; Function Attrs: mustprogress nofree norecurse nosync nounwind willreturn memory(argmem: readwrite) uwtable
define noundef range(i32 0, 2) i32 @_ZN13duckdb_brotli25BrotliDecoderSetParameterEPNS_24BrotliDecoderStateStructENS_22BrotliDecoderParameterEj(ptr noundef captures(none) %0, i32 noundef %1, i32 noundef %2) local_unnamed_addr #0 {
  %4 = load i32, ptr %0, align 8, !tbaa !3
  %.not = icmp eq i32 %4, 0
  br i1 %.not, label %5, label %18

5:                                                ; preds = %3
  switch i32 %1, label %18 [
    i32 0, label %6
    i32 1, label %12
  ]

6:                                                ; preds = %5
  %.not7 = icmp eq i32 %2, 0
  %7 = getelementptr inbounds nuw i8, ptr %0, i64 772
  %8 = load i32, ptr %7, align 4
  %9 = select i1 %.not7, i32 16, i32 0
  %10 = and i32 %8, -17
  %11 = or disjoint i32 %10, %9
  store i32 %11, ptr %7, align 4
  br label %18

12:                                               ; preds = %5
  %.not6.not = icmp eq i32 %2, 0
  %13 = getelementptr inbounds nuw i8, ptr %0, i64 772
  %14 = load i32, ptr %13, align 4
  %15 = select i1 %.not6.not, i32 0, i32 32
  %16 = and i32 %14, -33
  %17 = or disjoint i32 %16, %15
  store i32 %17, ptr %13, align 4
  br label %18

18:                                               ; preds = %5, %3, %12, %6
  %.0 = phi i32 [ 1, %12 ], [ 1, %6 ], [ 0, %3 ], [ 0, %5 ]
  ret i32 %.0
}